; Function Attrs: nounwind uwtable
define void @Gia_ManBuiltInSimPerform(ptr noundef readonly captures(none) %0, i32 noundef %1) local_unnamed_addr #1 {
  %3 = getelementptr inbounds nuw i8, ptr %0, i64 816
  %4 = load i32, ptr %3, align 8, !tbaa !114
  %5 = icmp sgt i32 %4, 0
  br i1 %5, label %.lr.ph, label %._crit_edge

.lr.ph:                                           ; preds = %2
  %6 = getelementptr inbounds nuw i8, ptr %0, i64 832
  br label %7

7:                                                ; preds = %.lr.ph, %Vec_WrdPush.exit
  %.05 = phi i32 [ 0, %.lr.ph ], [ %40, %Vec_WrdPush.exit ]
  %8 = load ptr, ptr %6, align 8, !tbaa !123
  %9 = getelementptr inbounds nuw i8, ptr %8, i64 4
  %10 = load i32, ptr %9, align 4, !tbaa !122
  %11 = load i32, ptr %8, align 8, !tbaa !116
  %12 = icmp eq i32 %10, %11
  br i1 %12, label %13, label %.Vec_WrdGrow.exit10_crit_edge.i

.Vec_WrdGrow.exit10_crit_edge.i:                  ; preds = %7
  %.phi.trans.insert.i = getelementptr inbounds nuw i8, ptr %8, i64 8
  %.pre.i = load ptr, ptr %.phi.trans.insert.i, align 8, !tbaa !119
  br label %Vec_WrdPush.exit

13:                                               ; preds = %7
  %14 = icmp slt i32 %10, 16
  br i1 %14, label %15, label %23

15:                                               ; preds = %13
  %16 = getelementptr inbounds nuw i8, ptr %8, i64 8
  %17 = load ptr, ptr %16, align 8, !tbaa !119
  %.not9.i.i = icmp eq ptr %17, null
  br i1 %.not9.i.i, label %20, label %18

18:                                               ; preds = %15
  %19 = tail call dereferenceable_or_null(128) ptr @realloc(ptr noundef nonnull %17, i64 noundef 128) #24
  br label %Vec_WrdGrow.exit.i

20:                                               ; preds = %15
  %21 = tail call noalias dereferenceable_or_null(128) ptr @malloc(i64 noundef 128) #25
  br label %Vec_WrdGrow.exit.i

Vec_WrdGrow.exit.i:                               ; preds = %20, %18
  %22 = phi ptr [ %19, %18 ], [ %21, %20 ]
  store ptr %22, ptr %16, align 8, !tbaa !119
  store i32 16, ptr %8, align 8, !tbaa !116
  br label %Vec_WrdPush.exit

23:                                               ; preds = %13
  %24 = shl nuw nsw i32 %10, 1
  %25 = getelementptr inbounds nuw i8, ptr %8, i64 8
  %26 = load ptr, ptr %25, align 8, !tbaa !119
  %.not9.i9.i = icmp eq ptr %26, null
  %27 = zext nneg i32 %24 to i64
  %28 = shl nuw nsw i64 %27, 3
  br i1 %.not9.i9.i, label %31, label %29

29:                                               ; preds = %23
  %30 = tail call ptr @realloc(ptr noundef nonnull %26, i64 noundef %28) #24
  br label %33

31:                                               ; preds = %23
  %32 = tail call noalias ptr @malloc(i64 noundef %28) #25
  br label %33

33:                                               ; preds = %31, %29
  %34 = phi ptr [ %30, %29 ], [ %32, %31 ]
  store ptr %34, ptr %25, align 8, !tbaa !119
  store i32 %24, ptr %8, align 8, !tbaa !116
  br label %Vec_WrdPush.exit

Vec_WrdPush.exit:                                 ; preds = %.Vec_WrdGrow.exit10_crit_edge.i, %Vec_WrdGrow.exit.i, %33
  %35 = phi ptr [ %.pre.i, %.Vec_WrdGrow.exit10_crit_edge.i ], [ %34, %33 ], [ %22, %Vec_WrdGrow.exit.i ]
  %36 = load i32, ptr %9, align 4, !tbaa !122
  %37 = add nsw i32 %36, 1
  store i32 %37, ptr %9, align 4, !tbaa !122
  %38 = sext i32 %36 to i64
  %39 = getelementptr inbounds i64, ptr %35, i64 %38
  store i64 0, ptr %39, align 8, !tbaa !121
  %40 = add nuw nsw i32 %.05, 1
  %41 = load i32, ptr %3, align 8, !tbaa !114
  %42 = icmp slt i32 %40, %41
  br i1 %42, label %7, label %._crit_edge, !llvm.loop !131

._crit_edge:                                      ; preds = %Vec_WrdPush.exit, %2
  tail call void @Gia_ManBuiltInSimPerformInt(ptr noundef nonnull %0, i32 noundef %1)
  ret void
}